target datalayout = "e-m:e-p270:32:32-p271:32:32-p272:64:64-i64:64-i128:128-f80:128-n8:16:32:64-S128"
target triple = "x86_64-pc-linux-gnu"

%"class.google::protobuf::internal::InternalMetadata" = type { i64 }
%"class.google::protobuf::MessageLite" = type { ptr, %"class.google::protobuf::internal::InternalMetadata" }
%"class.google::protobuf::internal::LogMessage" = type { i32, ptr, i32, %"class.std::__cxx11::basic_string" }
%"class.std::__cxx11::basic_string" = type { %"struct.std::__cxx11::basic_string<char>::_Alloc_hider", i64, %union.anon.88 }
%"struct.std::__cxx11::basic_string<char>::_Alloc_hider" = type { ptr }
%union.anon.88 = type { i64, [8 x i8] }
%"class.google::protobuf::internal::LogFinisher" = type { i8 }
%"struct.google::protobuf::internal::InternalMetadata::ContainerBase" = type { ptr }
%"class.google::protobuf::Arena" = type { %"class.google::protobuf::internal::ThreadSafeArena" }
%"class.google::protobuf::internal::ThreadSafeArena" = type { i64, %"class.google::protobuf::internal::TaggedAllocationPolicyPtr", %"struct.std::atomic.100", %"struct.std::atomic.100" }
%"class.google::protobuf::internal::TaggedAllocationPolicyPtr" = type { i64 }
%"struct.std::atomic.100" = type { %"struct.std::__atomic_base.101" }
%"struct.std::__atomic_base.101" = type { ptr }

@.str.2 = private unnamed_addr constant [133 x i8] c"generated/home/dtcxzyw/WorkSpace/Projects/compilers/llvm-opt-benchmark/bench/opencv/opencv/modules/dnn/misc/caffe/opencv-caffe.pb.cc\00", align 1
@_ZTVN6google8protobuf11MessageLiteE = external unnamed_addr constant { [15 x ptr] }, align 8
@.str.125 = private unnamed_addr constant [51 x i8] c"CHECK failed: GetArenaForAllocation() == nullptr: \00", align 1

; Function Attrs: inlinehint mustprogress nounwind uwtable
define linkonce_odr hidden void @_ZN6google8protobuf5ArenaD2Ev(ptr noundef nonnull align 8 dereferenceable(32) %0) unnamed_addr #7 comdat align 2 {
  %2 = alloca ptr, align 8
  store ptr %0, ptr %2, align 8, !tbaa !12
  %3 = load ptr, ptr %2, align 8
  %4 = getelementptr inbounds nuw %"class.google::protobuf::Arena", ptr %3, i32 0, i32 0
  call void @_ZN6google8protobuf8internal15ThreadSafeArenaD1Ev(ptr noundef nonnull align 8 dereferenceable(32) %4) #3
  ret void
}

; Function Attrs: alwaysinline mustprogress nounwind uwtable
define linkonce_odr hidden noundef zeroext i1 @_ZNK6google8protobuf8internal16InternalMetadata23HasMessageOwnedArenaTagEv(ptr noundef nonnull align 8 dereferenceable(8) %0) #13 comdat align 2 {
  %2 = alloca ptr, align 8
  store ptr %0, ptr %2, align 8, !tbaa !32
  %3 = load ptr, ptr %2, align 8
  %4 = getelementptr inbounds nuw %"class.google::protobuf::internal::InternalMetadata", ptr %3, i32 0, i32 0
  %5 = load i64, ptr %4, align 8, !tbaa !1438
  %6 = and i64 %5, 2
  %7 = icmp ne i64 %6, 0
  ret i1 %7
}

; Function Attrs: alwaysinline mustprogress nounwind uwtable
define linkonce_odr hidden noundef zeroext i1 @_ZNK6google8protobuf8internal16InternalMetadata19HasUnknownFieldsTagEv(ptr noundef nonnull align 8 dereferenceable(8) %0) #13 comdat align 2 {
  %2 = alloca ptr, align 8
  store ptr %0, ptr %2, align 8, !tbaa !32
  %3 = load ptr, ptr %2, align 8
  %4 = getelementptr inbounds nuw %"class.google::protobuf::internal::InternalMetadata", ptr %3, i32 0, i32 0
  %5 = load i64, ptr %4, align 8, !tbaa !1438
  %6 = and i64 %5, 1
  %7 = icmp ne i64 %6, 0
  ret i1 %7
}

; Function Attrs: mustprogress nounwind uwtable
define linkonce_odr hidden noundef ptr @_ZNK6google8protobuf8internal16InternalMetadata8PtrValueINS0_5ArenaEEEPT_v(ptr noundef nonnull align 8 dereferenceable(8) %0) #5 comdat align 2 {
  %2 = alloca ptr, align 8
  store ptr %0, ptr %2, align 8, !tbaa !32
  %3 = load ptr, ptr %2, align 8
  %4 = getelementptr inbounds nuw %"class.google::protobuf::internal::InternalMetadata", ptr %3, i32 0, i32 0
  %5 = load i64, ptr %4, align 8, !tbaa !1438
  %6 = and i64 %5, -4
  %7 = inttoptr i64 %6 to ptr
  ret ptr %7
}

; Function Attrs: mustprogress nounwind uwtable
define linkonce_odr hidden noundef ptr @_ZNK6google8protobuf8internal16InternalMetadata8PtrValueINS2_13ContainerBaseEEEPT_v(ptr noundef nonnull align 8 dereferenceable(8) %0) #5 comdat align 2 {
  %2 = alloca ptr, align 8
  store ptr %0, ptr %2, align 8, !tbaa !32
  %3 = load ptr, ptr %2, align 8
  %4 = getelementptr inbounds nuw %"class.google::protobuf::internal::InternalMetadata", ptr %3, i32 0, i32 0
  %5 = load i64, ptr %4, align 8, !tbaa !1438
  %6 = and i64 %5, -4
  %7 = inttoptr i64 %6 to ptr
  ret ptr %7
}

; Function Attrs: mustprogress nounwind uwtable
define linkonce_odr hidden void @_ZN6google8protobuf8internal16InternalMetadataD2Ev(ptr noundef nonnull align 8 dereferenceable(8) %0) unnamed_addr #5 comdat align 2 personality ptr @__gxx_personality_v0 {
  %2 = alloca ptr, align 8
  store ptr %0, ptr %2, align 8, !tbaa !32
  %3 = load ptr, ptr %2, align 8
  %4 = invoke noundef zeroext i1 @_ZNK6google8protobuf8internal16InternalMetadata23HasMessageOwnedArenaTagEv(ptr noundef nonnull align 8 dereferenceable(8) %3)
          to label %5 unwind label %13

5:                                                ; preds = %1
  br i1 %4, label %6, label %12

6:                                                ; preds = %5
  %7 = invoke noundef ptr @_ZNK6google8protobuf8internal16InternalMetadata5arenaEv(ptr noundef nonnull align 8 dereferenceable(8) %3)
          to label %8 unwind label %13

8:                                                ; preds = %6
  %9 = icmp eq ptr %7, null
  br i1 %9, label %11, label %10

10:                                               ; preds = %8
  call void @_ZN6google8protobuf5ArenaD2Ev(ptr noundef nonnull align 8 dereferenceable(32) %7) #3
  call void @_ZdlPv(ptr noundef %7) #22
  br label %11

11:                                               ; preds = %10, %8
  br label %12

12:                                               ; preds = %11, %5
  ret void

13:                                               ; preds = %6, %1
  %14 = landingpad { ptr, i32 }
          catch ptr null
  %15 = extractvalue { ptr, i32 } %14, 0
  call void @__clang_call_terminate(ptr %15) #21
  unreachable
}

; Function Attrs: alwaysinline mustprogress uwtable
define linkonce_odr hidden noundef zeroext i1 @_ZNK6google8protobuf8internal16InternalMetadata19have_unknown_fieldsEv(ptr noundef nonnull align 8 dereferenceable(8) %0) #8 comdat align 2 {
  %2 = alloca ptr, align 8
  store ptr %0, ptr %2, align 8, !tbaa !32
  %3 = load ptr, ptr %2, align 8
  %4 = call noundef zeroext i1 @_ZNK6google8protobuf8internal16InternalMetadata19HasUnknownFieldsTagEv(ptr noundef nonnull align 8 dereferenceable(8) %3)
  ret i1 %4
}

; Function Attrs: alwaysinline mustprogress uwtable
define linkonce_odr hidden noundef ptr @_ZNK6google8protobuf8internal16InternalMetadata5arenaEv(ptr noundef nonnull align 8 dereferenceable(8) %0) #8 comdat align 2 {
  %2 = alloca ptr, align 8
  %3 = alloca ptr, align 8
  store ptr %0, ptr %3, align 8, !tbaa !32
  %4 = load ptr, ptr %3, align 8
  %5 = call noundef zeroext i1 @_ZNK6google8protobuf8internal16InternalMetadata19have_unknown_fieldsEv(ptr noundef nonnull align 8 dereferenceable(8) %4)
  %6 = zext i1 %5 to i64
  %7 = call i64 @llvm.expect.i64(i64 %6, i64 0)
  %8 = icmp ne i64 %7, 0
  br i1 %8, label %9, label %13

9:                                                ; preds = %1
  %10 = call noundef ptr @_ZNK6google8protobuf8internal16InternalMetadata8PtrValueINS2_13ContainerBaseEEEPT_v(ptr noundef nonnull align 8 dereferenceable(8) %4)
  %11 = getelementptr inbounds nuw %"struct.google::protobuf::internal::InternalMetadata::ContainerBase", ptr %10, i32 0, i32 0
  %12 = load ptr, ptr %11, align 8, !tbaa !1443
  store ptr %12, ptr %2, align 8
  br label %15

13:                                               ; preds = %1
  %14 = call noundef ptr @_ZNK6google8protobuf8internal16InternalMetadata8PtrValueINS0_5ArenaEEEPT_v(ptr noundef nonnull align 8 dereferenceable(8) %4)
  store ptr %14, ptr %2, align 8
  br label %15

15:                                               ; preds = %13, %9
  %16 = load ptr, ptr %2, align 8
  ret ptr %16
}

; Function Attrs: mustprogress nounwind uwtable
define linkonce_odr hidden void @_ZN6google8protobuf11MessageLiteD2Ev(ptr noundef nonnull align 8 dereferenceable(16) %0) unnamed_addr #5 comdat align 2 {
  %2 = alloca ptr, align 8
  store ptr %0, ptr %2, align 8, !tbaa !30
  %3 = load ptr, ptr %2, align 8
  store ptr getelementptr inbounds inrange(-16, 104) ({ [15 x ptr] }, ptr @_ZTVN6google8protobuf11MessageLiteE, i32 0, i32 0, i32 2), ptr %3, align 8, !tbaa !18
  %4 = getelementptr inbounds nuw %"class.google::protobuf::MessageLite", ptr %3, i32 0, i32 1
  call void @_ZN6google8protobuf8internal16InternalMetadataD2Ev(ptr noundef nonnull align 8 dereferenceable(8) %4) #3
  ret void
}

; Function Attrs: mustprogress uwtable
define linkonce_odr hidden void @_ZN6google8protobuf8internal16InternalMetadata6DeleteINS0_15UnknownFieldSetEEEvv(ptr noundef nonnull align 8 dereferenceable(8) %0) #4 comdat align 2 {
  %2 = alloca ptr, align 8
  store ptr %0, ptr %2, align 8, !tbaa !32
  %3 = load ptr, ptr %2, align 8
  %4 = call noundef zeroext i1 @_ZNK6google8protobuf8internal16InternalMetadata19have_unknown_fieldsEv(ptr noundef nonnull align 8 dereferenceable(8) %3)
  br i1 %4, label %5, label %6

5:                                                ; preds = %1
  call void @_ZN6google8protobuf8internal16InternalMetadata21DeleteOutOfLineHelperINS0_15UnknownFieldSetEEEvv(ptr noundef nonnull align 8 dereferenceable(8) %3)
  br label %6

6:                                                ; preds = %5, %1
  ret void
}

; Function Attrs: inlinehint mustprogress uwtable
define linkonce_odr hidden void @_ZN12opencv_caffe17AccuracyParameter10SharedDtorEv(ptr noundef nonnull align 8 dereferenceable(40) %0) #6 comdat align 2 personality ptr @__gxx_personality_v0 {
  %2 = alloca ptr, align 8
  %3 = alloca %"class.google::protobuf::internal::LogMessage", align 8
  %4 = alloca i1, align 1
  %5 = alloca i1, align 1
  %6 = alloca ptr, align 8
  %7 = alloca i32, align 4
  %8 = alloca %"class.google::protobuf::internal::LogFinisher", align 1
  store ptr %0, ptr %2, align 8, !tbaa !699
  %9 = load ptr, ptr %2, align 8
  br label %10

10:                                               ; preds = %25, %1
  br i1 false, label %11, label %41

11:                                               ; preds = %10
  %12 = call noundef ptr @_ZNK6google8protobuf11MessageLite21GetArenaForAllocationEv(ptr noundef nonnull align 8 dereferenceable(16) %9)
  %13 = icmp eq ptr %12, null
  store i1 false, ptr %4, align 1
  store i1 false, ptr %5, align 1
  call void @llvm.lifetime.start.p0(i64 1, ptr %8) #3
  br i1 %13, label %14, label %15

14:                                               ; preds = %11
  br label %19

15:                                               ; preds = %11
  call void @llvm.lifetime.start.p0(i64 56, ptr %3) #3
  store i1 true, ptr %4, align 1
  call void @_ZN6google8protobuf8internal10LogMessageC1ENS0_8LogLevelEPKci(ptr noundef nonnull align 8 dereferenceable(56) %3, i32 noundef 3, ptr noundef @.str.2, i32 noundef 14696)
  store i1 true, ptr %5, align 1
  %16 = invoke noundef nonnull align 8 dereferenceable(56) ptr @_ZN6google8protobuf8internal10LogMessagelsEPKc(ptr noundef nonnull align 8 dereferenceable(56) %3, ptr noundef @.str.125)
          to label %17 unwind label %26

17:                                               ; preds = %15
  invoke void @_ZN6google8protobuf8internal11LogFinisheraSERNS1_10LogMessageE(ptr noundef nonnull align 1 dereferenceable(1) %8, ptr noundef nonnull align 8 dereferenceable(56) %16)
          to label %18 unwind label %30

18:                                               ; preds = %17
  br label %19

19:                                               ; preds = %18, %14
  call void @llvm.lifetime.end.p0(i64 1, ptr %8) #3
  %20 = load i1, ptr %5, align 1
  br i1 %20, label %21, label %22

21:                                               ; preds = %19
  call void @_ZN6google8protobuf8internal10LogMessageD1Ev(ptr noundef nonnull align 8 dereferenceable(56) %3) #3
  br label %22

22:                                               ; preds = %21, %19
  %23 = load i1, ptr %4, align 1
  br i1 %23, label %24, label %25

24:                                               ; preds = %22
  call void @llvm.lifetime.end.p0(i64 56, ptr %3) #3
  br label %25

25:                                               ; preds = %24, %22
  br label %10, !llvm.loop !1059

26:                                               ; preds = %15
  %27 = landingpad { ptr, i32 }
          cleanup
  %28 = extractvalue { ptr, i32 } %27, 0
  store ptr %28, ptr %6, align 8
  %29 = extractvalue { ptr, i32 } %27, 1
  store i32 %29, ptr %7, align 4
  br label %34

30:                                               ; preds = %17
  %31 = landingpad { ptr, i32 }
          cleanup
  %32 = extractvalue { ptr, i32 } %31, 0
  store ptr %32, ptr %6, align 8
  %33 = extractvalue { ptr, i32 } %31, 1
  store i32 %33, ptr %7, align 4
  call void @llvm.lifetime.end.p0(i64 1, ptr %8) #3
  br label %34

34:                                               ; preds = %30, %26
  %35 = load i1, ptr %5, align 1
  br i1 %35, label %36, label %37

36:                                               ; preds = %34
  call void @_ZN6google8protobuf8internal10LogMessageD1Ev(ptr noundef nonnull align 8 dereferenceable(56) %3) #3
  br label %37

37:                                               ; preds = %36, %34
  %38 = load i1, ptr %4, align 1
  br i1 %38, label %39, label %40

39:                                               ; preds = %37
  call void @llvm.lifetime.end.p0(i64 56, ptr %3) #3
  br label %40

40:                                               ; preds = %39, %37
  br label %42

41:                                               ; preds = %10
  ret void

42:                                               ; preds = %40
  %43 = load ptr, ptr %6, align 8
  %44 = load i32, ptr %7, align 4
  %45 = insertvalue { ptr, i32 } poison, ptr %43, 0
  %46 = insertvalue { ptr, i32 } %45, i32 %44, 1
  resume { ptr, i32 } %46
}

; Function Attrs: mustprogress uwtable
define linkonce_odr hidden noundef ptr @_ZNK6google8protobuf11MessageLite21GetArenaForAllocationEv(ptr noundef nonnull align 8 dereferenceable(16) %0) #4 comdat align 2 {
  %2 = alloca ptr, align 8
  store ptr %0, ptr %2, align 8, !tbaa !30
  %3 = load ptr, ptr %2, align 8
  %4 = getelementptr inbounds nuw %"class.google::protobuf::MessageLite", ptr %3, i32 0, i32 1
  %5 = call noundef ptr @_ZNK6google8protobuf8internal16InternalMetadata5arenaEv(ptr noundef nonnull align 8 dereferenceable(8) %4)
  ret ptr %5
}

; Function Attrs: mustprogress nounwind uwtable
define hidden void @_ZN12opencv_caffe17AccuracyParameterD2Ev(ptr noundef nonnull align 8 dereferenceable(40) %0) unnamed_addr #5 align 2 personality ptr @__gxx_personality_v0 {
  %2 = alloca ptr, align 8
  %3 = alloca i32, align 4
  store ptr %0, ptr %2, align 8, !tbaa !699
  %4 = load ptr, ptr %2, align 8
  %5 = invoke noundef ptr @_ZNK6google8protobuf11MessageLite21GetArenaForAllocationEv(ptr noundef nonnull align 8 dereferenceable(16) %4)
          to label %6 unwind label %16

6:                                                ; preds = %1
  %7 = icmp ne ptr %5, null
  br i1 %7, label %8, label %9

8:                                                ; preds = %6
  store i32 1, ptr %3, align 4
  br label %13

9:                                                ; preds = %6
  invoke void @_ZN12opencv_caffe17AccuracyParameter10SharedDtorEv(ptr noundef nonnull align 8 dereferenceable(40) %4)
          to label %10 unwind label %16

10:                                               ; preds = %9
  %11 = getelementptr inbounds nuw %"class.google::protobuf::MessageLite", ptr %4, i32 0, i32 1
  invoke void @_ZN6google8protobuf8internal16InternalMetadata6DeleteINS0_15UnknownFieldSetEEEvv(ptr noundef nonnull align 8 dereferenceable(8) %11)
          to label %12 unwind label %16

12:                                               ; preds = %10
  store i32 0, ptr %3, align 4
  br label %13

13:                                               ; preds = %12, %8
  call void @_ZN6google8protobuf11MessageLiteD2Ev(ptr noundef nonnull align 8 dereferenceable(16) %4) #3
  %14 = load i32, ptr %3, align 4
  switch i32 %14, label %19 [
    i32 0, label %15
    i32 1, label %15
  ]

15:                                               ; preds = %13, %13
  ret void

16:                                               ; preds = %10, %9, %1
  %17 = landingpad { ptr, i32 }
          catch ptr null
  %18 = extractvalue { ptr, i32 } %17, 0
  call void @__clang_call_terminate(ptr %18) #21
  unreachable

19:                                               ; preds = %13
  unreachable
}